(dp0
S'content'
p1
V
p2
sS'meta_description'
p3
g2
sS'datetime'
p4
V17-Jan-2019
p5
sS'link'
p6
Vhttps://money.usnews.com/investing/bonds/articles/why-corporate-bonds-are-risky-with-higher-interest-rates
p7
sS'title'
p8
g2
s.