(dp0
S'content'
p1
VInvestors considering whether to invest in Aramco\u2019s much-anticipated bond debut say the oil giant is pushing for especially low yields, despite concerns about the role of the Saudi state in the company\u2019s finances.\u000a\u000aAramco, or Saudi Arabian Oil Co., is seeking to price its first issuance at close to the level that the Saudi government pays for its dollar-denominated debt, according to investors who have seen presentations from the firm and its advisers. Companies rarely price their bonds at or lower than the level of the country...
p2
sS'meta_description'
p3
VInvestors considering whether to invest in Aramco\u2019s much-anticipated bond debut say the oil giant is pushing for especially low yields, despite concerns about the role of the Saudi state in the company\u2019s finances.
p4
sS'datetime'
p5
V04-Apr-2019
p6
sS'link'
p7
Vhttps://www.wsj.com/articles/saudi-aramco-pushes-for-low-yield-on-debut-bond-11554380944
p8
sS'title'
p9
VSaudi Aramco Pushes for Low Yield on Debut Bond
p10
s.