(dp0
S'content'
p1
VKeep abreast of significant corporate, financial and political developments around the world. Stay informed and spot emerging risks and opportunities with independent global reporting, expert commentary and analysis you can trust.
p2
sS'meta_description'
p3
S''
p4
sS'datetime'
p5
V28-Sep-2018
p6
sS'link'
p7
Vhttps://www.ft.com/content/9acbe71a-c2e5-11e8-8d55-54197280d3f7
p8
sS'title'
p9
VSubscribe to read
p10
s.