(dp0
S'content'
p1
VCut in inflation forecast by RBI should have ideally led to a less hawkish monetary policy, say analysts
p2
sS'meta_description'
p3
S'Cut in inflation forecast by RBI should have ideally led to a less hawkish monetary policy, say analysts'
p4
sS'datetime'
p5
V05-Dec-2018
p6
sS'link'
p7
Vhttps://www.livemint.com/Money/a1trPvfVeQ7MDF0j8wgdTM/Markets-end-1-down-despite-lower-inflation-forecast-by-RBI.html
p8
sS'title'
p9
VSensex shrugs off lower inflation forecast, slides 1% on global cues
p10
s.