(dp0
S'content'
p1
VTOKYO, Feb 1 (Reuters) - Japan\u2019s Government Pension Investment Fund (GPIF), the world\u2019s largest pension fund, on Friday posted a record quarterly loss as global stock market turmoil took its toll.\u000a\u000aGPIF said it lost 14.8 trillion yen ($136 billion) from its investments in the quarter ended December.\u000a\u000aThe losses, the largest since GPIF started managing its assets on the market in 2001, followed a plunge in Japan\u2019s benchmark Nikkei average as worries about the escalating Sino-U.S. trade war battered global markets.\u000a\u000aThe Nikkei fell 17 percent during the quarter.\u000a\u000aThe results are the negative effect of GPIF\u2019s landmark policy shift made in 2014, when it increased investments in riskier assets such as stocks in the hopes of making better returns.\u000a\u000aIt reduced its reliance on low-yielding domestic bonds, followed by a government push to spur higher returns on pension investments.\u000a\u000aReturns on GPIF\u2019s overall assets, worth 151 trillion yen, was a negative 9.06 percent in the quarter, compared with a 3.42 percent gain in the previous quarter.\u000a\u000aGPIF\u2019s Japanese stock assets generated a negative return of 17.6 percent, while its bond investment posted a 1.01 percent positive yield.\u000a\u000aAs of December, GPIF\u2019s stock holdings accounted for 23.7 percent of its total assets, while its allocation of Japanese bonds took up 28.2 percent.
p2
sS'meta_description'
p3
S"Japan's Government Pension Investment Fund (GPIF), the world's largest pension fund, on Friday posted a record quarterly loss as global stock market turmoil took its toll."
p4
sS'datetime'
p5
V01-Feb-2019
p6
sS'link'
p7
Vhttps://www.reuters.com/article/japan-gpif/update-1-japans-gpif-posts-record-quarterly-loss-amid-market-turmoil-idUSL3N1ZW2OT
p8
sS'title'
p9
VUPDATE 1-Japan's GPIF posts record quarterly loss amid market turmoil
p10
s.