(dp0
S'content'
p1
VKeep abreast of significant corporate, financial and political developments around the world. Stay informed and spot emerging risks and opportunities with independent global reporting, expert commentary and analysis you can trust.
p2
sS'meta_description'
p3
S''
p4
sS'datetime'
p5
V29-Jun-2018
p6
sS'link'
p7
Vhttps://www.ft.com/content/7e6940b6-7aee-11e8-af48-190d103e32a4
p8
sS'title'
p9
VSubscribe to read
p10
s.