(dp0
S'content'
p1
VU.S. government debt yields fell on Wednesday after a government report showed that prices consumers pay across the U.S. economy inched higher in May.\u000a\u000aAt around 5:02 p.m. ET, the yield on the benchmark 10-year Treasury note, which moves inversely to price, was lower at around 2.12%, while the yield on the 30-year Treasury bond was little changed at 2.618%.\u000a\u000aThe Labor Department's consumer price index rose a seasonally adjusted 0.1% in May as consumers paid little more for goods ranging from milk and eggs to electricity and rent. Excluding volatile energy and food components, costs rose a similar 0.1%.\u000a\u000aPrices rose 1.8% from the previous year, while the so-called core gauge rose 2%; both prints fell just short of what economists polled by Dow Jones had expected.
p2
sS'meta_description'
p3
S'Government debt yields fell on Wednesday after a government report showed that prices consumers pay across the U.S. economy inched higher.'
p4
sS'datetime'
p5
V12-Jun-2019
p6
sS'link'
p7
Vhttps://www.cnbc.com/2019/06/12/us-treasury-yields-tick-lower-ahead-of-inflation-data.html
p8
sS'title'
p9
VUS Treasury yields fall after report shows little inflation
p10
s.